(dp1
I1
(irpdb2
CBreakPoint
p2
(dp3
S'm_id'
p4
I1
sS'm_scope_first_line'
p5
I32
sS'm_fEnabled'
p6
I01
sS'm_code'
p7
NsS'm_fTemporary'
p8
I00
sS'm_scope_offset'
p9
I66
sS'm_scope_fqn'
p10
S'?.HouseholdSynthesizer.__init__'
p11
sS'm_lineno'
p12
I98
sS'm_filename'
p13
S'c:\\opus\\sanfrancisco\\utils\\household_synthesizer.py'
p14
sS'm_scope_name'
p15
S'__init__'
p16
sS'm_expr'
p17
S''
sbs.